target datalayout = "e-m:e-p270:32:32-p271:32:32-p272:64:64-i64:64-i128:128-f80:128-n8:16:32:64-S128"
target triple = "x86_64-pc-linux-gnu"

%class.InterfaceSortFilterModel = type { %class.QSortFilterProxyModel, i8, i8, i8, i8, i8, %class.QList, %class.QList.0 }
%class.QSortFilterProxyModel = type { %class.QAbstractProxyModel }
%class.QAbstractProxyModel = type { %class.QAbstractItemModel }
%class.QAbstractItemModel = type { %class.QObject }
%class.QObject = type { ptr, %class.QScopedPointer }
%class.QScopedPointer = type { ptr }
%class.QList = type { %struct.QArrayDataPointer }
%struct.QArrayDataPointer = type { ptr, ptr, i64 }
%class.QList.0 = type { %struct.QArrayDataPointer.3 }
%struct.QArrayDataPointer.3 = type { ptr, ptr, i64 }

@_ZTV24InterfaceSortFilterModel = external unnamed_addr constant { [59 x ptr] }, align 8

; Function Attrs: mustprogress nounwind uwtable
define linkonce_odr noundef ptr @_ZN17QArrayDataPointerI20InterfaceTreeColumnsE4dataEv(ptr noundef nonnull align 8 dereferenceable(24) %0) #2 comdat align 2 {
  %2 = alloca ptr, align 8
  store ptr %0, ptr %2, align 8
  %3 = load ptr, ptr %2, align 8
  %4 = getelementptr inbounds %struct.QArrayDataPointer.3, ptr %3, i32 0, i32 1
  %5 = load ptr, ptr %4, align 8
  ret ptr %5
}

; Function Attrs: mustprogress nounwind uwtable
define linkonce_odr noundef ptr @_ZN17QArrayDataPointerI20InterfaceTreeColumnsE3endEv(ptr noundef nonnull align 8 dereferenceable(24) %0) #2 comdat align 2 {
  %2 = alloca ptr, align 8
  store ptr %0, ptr %2, align 8
  %3 = load ptr, ptr %2, align 8
  %4 = call noundef ptr @_ZN17QArrayDataPointerI20InterfaceTreeColumnsE4dataEv(ptr noundef nonnull align 8 dereferenceable(24) %3) #12
  %5 = getelementptr inbounds %struct.QArrayDataPointer.3, ptr %3, i32 0, i32 2
  %6 = load i64, ptr %5, align 8
  %7 = getelementptr i32, ptr %4, i64 %6
  ret ptr %7
}

; Function Attrs: mustprogress nounwind uwtable
define linkonce_odr noundef ptr @_ZN17QArrayDataPointerI20InterfaceTreeColumnsEptEv(ptr noundef nonnull align 8 dereferenceable(24) %0) #2 comdat align 2 {
  %2 = alloca ptr, align 8
  store ptr %0, ptr %2, align 8
  %3 = load ptr, ptr %2, align 8
  ret ptr %3
}

; Function Attrs: mustprogress uwtable
define linkonce_odr noundef nonnull align 4 dereferenceable(4) ptr @_ZN5QListI20InterfaceTreeColumnsE11emplaceBackIJRS0_EEES3_DpOT_(ptr noundef nonnull align 8 dereferenceable(24) %0, ptr noundef nonnull align 4 dereferenceable(4) %1) #0 comdat align 2 {
  %3 = alloca ptr, align 8
  %4 = alloca ptr, align 8
  store ptr %0, ptr %3, align 8
  store ptr %1, ptr %4, align 8
  %5 = load ptr, ptr %3, align 8
  %6 = getelementptr inbounds %class.QList.0, ptr %5, i32 0, i32 0
  %7 = call noundef ptr @_ZN17QArrayDataPointerI20InterfaceTreeColumnsEptEv(ptr noundef nonnull align 8 dereferenceable(24) %6) #12
  %8 = getelementptr inbounds %class.QList.0, ptr %5, i32 0, i32 0
  %9 = call noundef ptr @_ZN17QArrayDataPointerI20InterfaceTreeColumnsEptEv(ptr noundef nonnull align 8 dereferenceable(24) %8) #12
  %10 = getelementptr inbounds %struct.QArrayDataPointer.3, ptr %9, i32 0, i32 2
  %11 = load i64, ptr %10, align 8
  %12 = load ptr, ptr %4, align 8
  call void @_ZN9QtPrivate12QPodArrayOpsI20InterfaceTreeColumnsE7emplaceIJRS1_EEEvxDpOT_(ptr noundef nonnull align 8 dereferenceable(24) %7, i64 noundef %11, ptr noundef nonnull align 4 dereferenceable(4) %12)
  %13 = getelementptr inbounds %class.QList.0, ptr %5, i32 0, i32 0
  %14 = call noundef ptr @_ZN17QArrayDataPointerI20InterfaceTreeColumnsE3endEv(ptr noundef nonnull align 8 dereferenceable(24) %13) #12
  %15 = getelementptr i32, ptr %14, i64 -1
  ret ptr %15
}

; Function Attrs: mustprogress uwtable
define linkonce_odr void @_ZN5QListI20InterfaceTreeColumnsE6appendES0_(ptr noundef nonnull align 8 dereferenceable(24) %0, i32 noundef %1) #0 comdat align 2 {
  %3 = alloca ptr, align 8
  %4 = alloca i32, align 4
  store ptr %0, ptr %3, align 8
  store i32 %1, ptr %4, align 4
  %5 = load ptr, ptr %3, align 8
  %6 = call noundef nonnull align 4 dereferenceable(4) ptr @_ZN5QListI20InterfaceTreeColumnsE11emplaceBackIJRS0_EEES3_DpOT_(ptr noundef nonnull align 8 dereferenceable(24) %5, ptr noundef nonnull align 4 dereferenceable(4) %4)
  ret void
}

; Function Attrs: mustprogress nounwind uwtable
define linkonce_odr void @_ZN17QArrayDataPointerI20InterfaceTreeColumnsEC2Ev(ptr noundef nonnull align 8 dereferenceable(24) %0) unnamed_addr #2 comdat align 2 {
  %2 = alloca ptr, align 8
  store ptr %0, ptr %2, align 8
  %3 = load ptr, ptr %2, align 8
  %4 = getelementptr inbounds %struct.QArrayDataPointer.3, ptr %3, i32 0, i32 0
  store ptr null, ptr %4, align 8
  %5 = getelementptr inbounds %struct.QArrayDataPointer.3, ptr %3, i32 0, i32 1
  store ptr null, ptr %5, align 8
  %6 = getelementptr inbounds %struct.QArrayDataPointer.3, ptr %3, i32 0, i32 2
  store i64 0, ptr %6, align 8
  ret void
}

; Function Attrs: mustprogress nounwind uwtable
define linkonce_odr void @_ZN17QArrayDataPointerIiEC2Ev(ptr noundef nonnull align 8 dereferenceable(24) %0) unnamed_addr #2 comdat align 2 {
  %2 = alloca ptr, align 8
  store ptr %0, ptr %2, align 8
  %3 = load ptr, ptr %2, align 8
  %4 = getelementptr inbounds %struct.QArrayDataPointer, ptr %3, i32 0, i32 0
  store ptr null, ptr %4, align 8
  %5 = getelementptr inbounds %struct.QArrayDataPointer, ptr %3, i32 0, i32 1
  store ptr null, ptr %5, align 8
  %6 = getelementptr inbounds %struct.QArrayDataPointer, ptr %3, i32 0, i32 2
  store i64 0, ptr %6, align 8
  ret void
}

; Function Attrs: mustprogress uwtable
define void @_ZN24InterfaceSortFilterModel14resetAllFilterEv(ptr noundef nonnull align 8 dereferenceable(72) %0) #0 align 2 {
  %2 = alloca ptr, align 8
  %3 = alloca i32, align 4
  store ptr %0, ptr %2, align 8
  %4 = load ptr, ptr %2, align 8
  %5 = getelementptr inbounds %class.InterfaceSortFilterModel, ptr %4, i32 0, i32 1
  store i8 1, ptr %5, align 8
  %6 = getelementptr inbounds %class.InterfaceSortFilterModel, ptr %4, i32 0, i32 2
  store i8 1, ptr %6, align 1
  %7 = getelementptr inbounds %class.InterfaceSortFilterModel, ptr %4, i32 0, i32 3
  store i8 0, ptr %7, align 2
  %8 = getelementptr inbounds %class.InterfaceSortFilterModel, ptr %4, i32 0, i32 4
  store i8 0, ptr %8, align 1
  %9 = getelementptr inbounds %class.InterfaceSortFilterModel, ptr %4, i32 0, i32 5
  store i8 0, ptr %9, align 4
  store i32 0, ptr %3, align 4
  br label %10

10:                                               ; preds = %16, %1
  %11 = load i32, ptr %3, align 4
  %12 = icmp slt i32 %11, 15
  br i1 %12, label %13, label %19

13:                                               ; preds = %10
  %14 = getelementptr inbounds %class.InterfaceSortFilterModel, ptr %4, i32 0, i32 7
  %15 = load i32, ptr %3, align 4
  call void @_ZN5QListI20InterfaceTreeColumnsE6appendES0_(ptr noundef nonnull align 8 dereferenceable(24) %14, i32 noundef %15)
  br label %16

16:                                               ; preds = %13
  %17 = load i32, ptr %3, align 4
  %18 = add i32 %17, 1
  store i32 %18, ptr %3, align 4
  br label %10, !llvm.loop !4

19:                                               ; preds = %10
  call void @_ZN21QSortFilterProxyModel16invalidateFilterEv(ptr noundef nonnull align 8 dereferenceable(16) %4)
  call void @_ZN21QSortFilterProxyModel10invalidateEv(ptr noundef nonnull align 8 dereferenceable(16) %4)
  ret void
}

; Function Attrs: mustprogress nounwind uwtable
define linkonce_odr void @_ZN5QListI20InterfaceTreeColumnsEC2Ev(ptr noundef nonnull align 8 dereferenceable(24) %0) unnamed_addr #2 comdat align 2 {
  %2 = alloca ptr, align 8
  store ptr %0, ptr %2, align 8
  %3 = load ptr, ptr %2, align 8
  %4 = getelementptr inbounds %class.QList.0, ptr %3, i32 0, i32 0
  call void @_ZN17QArrayDataPointerI20InterfaceTreeColumnsEC2Ev(ptr noundef nonnull align 8 dereferenceable(24) %4) #12
  ret void
}

; Function Attrs: mustprogress nounwind uwtable
define linkonce_odr void @_ZN5QListIiEC2Ev(ptr noundef nonnull align 8 dereferenceable(24) %0) unnamed_addr #2 comdat align 2 {
  %2 = alloca ptr, align 8
  store ptr %0, ptr %2, align 8
  %3 = load ptr, ptr %2, align 8
  %4 = getelementptr inbounds %class.QList, ptr %3, i32 0, i32 0
  call void @_ZN17QArrayDataPointerIiEC2Ev(ptr noundef nonnull align 8 dereferenceable(24) %4) #12
  ret void
}

; Function Attrs: mustprogress uwtable
define void @_ZN24InterfaceSortFilterModelC2EP7QObject(ptr noundef nonnull align 8 dereferenceable(72) %0, ptr noundef %1) unnamed_addr #0 align 2 personality ptr @__gxx_personality_v0 {
  %3 = alloca ptr, align 8
  %4 = alloca ptr, align 8
  %5 = alloca ptr, align 8
  %6 = alloca i32, align 4
  store ptr %0, ptr %3, align 8
  store ptr %1, ptr %4, align 8
  %7 = load ptr, ptr %3, align 8
  %8 = load ptr, ptr %4, align 8
  call void @_ZN21QSortFilterProxyModelC2EP7QObject(ptr noundef nonnull align 8 dereferenceable(16) %7, ptr noundef %8)
  store ptr getelementptr inbounds ({ [59 x ptr] }, ptr @_ZTV24InterfaceSortFilterModel, i32 0, i32 0, i32 2), ptr %7, align 8
  %9 = getelementptr inbounds %class.InterfaceSortFilterModel, ptr %7, i32 0, i32 6
  call void @_ZN5QListIiEC2Ev(ptr noundef nonnull align 8 dereferenceable(24) %9) #12
  %10 = getelementptr inbounds %class.InterfaceSortFilterModel, ptr %7, i32 0, i32 7
  call void @_ZN5QListI20InterfaceTreeColumnsEC2Ev(ptr noundef nonnull align 8 dereferenceable(24) %10) #12
  invoke void @_ZN24InterfaceSortFilterModel14resetAllFilterEv(ptr noundef nonnull align 8 dereferenceable(72) %7)
          to label %11 unwind label %12

11:                                               ; preds = %2
  ret void

12:                                               ; preds = %2
  %13 = landingpad { ptr, i32 }
          cleanup
  %14 = extractvalue { ptr, i32 } %13, 0
  store ptr %14, ptr %5, align 8
  %15 = extractvalue { ptr, i32 } %13, 1
  store i32 %15, ptr %6, align 4
  call void @_ZN5QListI20InterfaceTreeColumnsED2Ev(ptr noundef nonnull align 8 dereferenceable(24) %10) #12
  call void @_ZN5QListIiED2Ev(ptr noundef nonnull align 8 dereferenceable(24) %9) #12
  call void @_ZN21QSortFilterProxyModelD2Ev(ptr noundef nonnull align 8 dereferenceable(16) %7) #12
  br label %16

16:                                               ; preds = %12
  %17 = load ptr, ptr %5, align 8
  %18 = load i32, ptr %6, align 4
  %19 = insertvalue { ptr, i32 } poison, ptr %17, 0
  %20 = insertvalue { ptr, i32 } %19, i32 %18, 1
  resume { ptr, i32 } %20
}