; Function Attrs: mustprogress uwtable
define void @_ZN24InterfaceSortFilterModelC2EP7QObject(ptr noundef nonnull align 8 dereferenceable(72) %0, ptr noundef %1) unnamed_addr #0 align 2 personality ptr @__gxx_personality_v0 {
  %3 = alloca i32, align 4
  tail call void @_ZN21QSortFilterProxyModelC2EP7QObject(ptr noundef nonnull align 8 dereferenceable(16) %0, ptr noundef %1)
  store ptr getelementptr inbounds ({ [59 x ptr] }, ptr @_ZTV24InterfaceSortFilterModel, i64 0, i32 0, i64 2), ptr %0, align 8
  %4 = getelementptr inbounds i8, ptr %0, i64 24
  %5 = getelementptr inbounds i8, ptr %0, i64 48
  %6 = getelementptr inbounds i8, ptr %0, i64 16
  tail call void @llvm.memset.p0.i64(ptr noundef nonnull align 8 dereferenceable(48) %4, i8 0, i64 48, i1 false)
  store <4 x i8> <i8 1, i8 1, i8 0, i8 0>, ptr %6, align 8
  %7 = getelementptr inbounds i8, ptr %0, i64 20
  store i8 0, ptr %7, align 4
  %8 = getelementptr inbounds i8, ptr %0, i64 64
  br label %9

9:                                                ; preds = %.noexc, %2
  %.03.i = phi i32 [ 0, %2 ], [ %11, %.noexc ]
  call void @llvm.lifetime.start.p0(i64 4, ptr nonnull %3)
  store i32 %.03.i, ptr %3, align 4
  %10 = load i64, ptr %8, align 8
  invoke void @_ZN9QtPrivate12QPodArrayOpsI20InterfaceTreeColumnsE7emplaceIJRS1_EEEvxDpOT_(ptr noundef nonnull align 8 dereferenceable(24) %5, i64 noundef %10, ptr noundef nonnull align 4 dereferenceable(4) %3)
          to label %.noexc unwind label %.loopexit

.noexc:                                           ; preds = %9
  call void @llvm.lifetime.end.p0(i64 4, ptr nonnull %3)
  %11 = add nuw nsw i32 %.03.i, 1
  %exitcond.not.i = icmp eq i32 %11, 15
  br i1 %exitcond.not.i, label %12, label %9, !llvm.loop !4

12:                                               ; preds = %.noexc
  invoke void @_ZN21QSortFilterProxyModel16invalidateFilterEv(ptr noundef nonnull align 8 dereferenceable(16) %0)
          to label %.noexc3 unwind label %.loopexit.split-lp

.noexc3:                                          ; preds = %12
  invoke void @_ZN21QSortFilterProxyModel10invalidateEv(ptr noundef nonnull align 8 dereferenceable(16) %0)
          to label %_ZN24InterfaceSortFilterModel14resetAllFilterEv.exit unwind label %.loopexit.split-lp

_ZN24InterfaceSortFilterModel14resetAllFilterEv.exit: ; preds = %.noexc3
  ret void

.loopexit:                                        ; preds = %9
  %lpad.loopexit = landingpad { ptr, i32 }
          cleanup
  br label %13

.loopexit.split-lp:                               ; preds = %12, %.noexc3
  %lpad.loopexit.split-lp = landingpad { ptr, i32 }
          cleanup
  br label %13

13:                                               ; preds = %.loopexit.split-lp, %.loopexit
  %lpad.phi = phi { ptr, i32 } [ %lpad.loopexit, %.loopexit ], [ %lpad.loopexit.split-lp, %.loopexit.split-lp ]
  call void @_ZN5QListI20InterfaceTreeColumnsED2Ev(ptr noundef nonnull align 8 dereferenceable(24) %5) #17
  call void @_ZN5QListIiED2Ev(ptr noundef nonnull align 8 dereferenceable(24) %4) #17
  call void @_ZN21QSortFilterProxyModelD2Ev(ptr noundef nonnull align 8 dereferenceable(16) %0) #17
  resume { ptr, i32 } %lpad.phi
}